; Function Attrs: mustprogress nounwind uwtable
define hidden void @_ZN6hermes3hbc20BytecodeDisassembler22disassembleArrayBufferERN4llvh11raw_ostreamE(ptr nocapture noundef nonnull readonly align 8 dereferenceable(20) %this, ptr noundef nonnull align 8 dereferenceable(36) %OS) local_unnamed_addr #1 align 2 {
entry:
  %ind = alloca i32, align 4
  %ref.tmp = alloca %"class.std::__cxx11::basic_string", align 8
  %0 = load ptr, ptr %this, align 8
  %arrayBuffer_.i = getelementptr inbounds i8, ptr %0, i64 72
  %retval.sroa.0.0.copyload.i = load ptr, ptr %arrayBuffer_.i, align 8
  %retval.sroa.2.0.arrayBuffer_.sroa_idx.i = getelementptr inbounds i8, ptr %0, i64 80
  %retval.sroa.2.0.copyload.i = load i64, ptr %retval.sroa.2.0.arrayBuffer_.sroa_idx.i, align 8
  %cmp = icmp eq i64 %retval.sroa.2.0.copyload.i, 0
  br i1 %cmp, label %while.end, label %if.end

if.end:                                           ; preds = %entry
  %OutBufEnd.i5.i = getelementptr inbounds i8, ptr %OS, i64 16
  %1 = load ptr, ptr %OutBufEnd.i5.i, align 8
  %OutBufCur.i6.i = getelementptr inbounds i8, ptr %OS, i64 24
  %2 = load ptr, ptr %OutBufCur.i6.i, align 8
  %sub.ptr.lhs.cast.i7.i = ptrtoint ptr %1 to i64
  %sub.ptr.rhs.cast.i8.i = ptrtoint ptr %2 to i64
  %sub.ptr.sub.i9.i = sub i64 %sub.ptr.lhs.cast.i7.i, %sub.ptr.rhs.cast.i8.i
  %cmp.i.i = icmp ult i64 %sub.ptr.sub.i9.i, 14
  br i1 %cmp.i.i, label %if.then.i.i, label %if.then4.i.i

if.then.i.i:                                      ; preds = %if.end
  %call3.i.i = tail call noundef nonnull align 8 dereferenceable(36) ptr @_ZN4llvh11raw_ostream5writeEPKcm(ptr noundef nonnull align 8 dereferenceable(36) %OS, ptr noundef nonnull @.str.27, i64 noundef 14) #17
  br label %while.body.preheader

if.then4.i.i:                                     ; preds = %if.end
  tail call void @llvm.memcpy.p0.p0.i64(ptr noundef nonnull align 1 dereferenceable(14) %2, ptr noundef nonnull align 1 dereferenceable(14) @.str.27, i64 14, i1 false)
  %3 = load ptr, ptr %OutBufCur.i6.i, align 8
  %add.ptr.i.i = getelementptr inbounds i8, ptr %3, i64 14
  store ptr %add.ptr.i.i, ptr %OutBufCur.i6.i, align 8
  br label %while.body.preheader

while.body.preheader:                             ; preds = %if.then4.i.i, %if.then.i.i
  br label %while.body

while.cond.loopexit.loopexit:                     ; preds = %_ZN4llvh11raw_ostreamlsEPKc.exit19
  %.pre = load i32, ptr %ind, align 4
  br label %while.cond.loopexit

while.cond.loopexit:                              ; preds = %while.cond.loopexit.loopexit, %_ZN6hermes3hbc14checkBufferTagEPKh.exit
  %4 = phi i32 [ %.pre, %while.cond.loopexit.loopexit ], [ %add, %_ZN6hermes3hbc14checkBufferTagEPKh.exit ]
  %conv = sext i32 %4 to i64
  %cmp6 = icmp ugt i64 %retval.sroa.2.0.copyload.i, %conv
  br i1 %cmp6, label %while.body, label %while.end, !llvm.loop !13

while.body:                                       ; preds = %while.body.preheader, %while.cond.loopexit
  %conv26 = phi i64 [ %conv, %while.cond.loopexit ], [ 0, %while.body.preheader ]
  %5 = phi i32 [ %4, %while.cond.loopexit ], [ 0, %while.body.preheader ]
  %add.ptr = getelementptr inbounds i8, ptr %retval.sroa.0.0.copyload.i, i64 %conv26
  %6 = load i8, ptr %add.ptr, align 1
  %conv.i = zext i8 %6 to i32
  %tobool.not.i = icmp sgt i8 %6, -1
  br i1 %tobool.not.i, label %if.else.i, label %if.then.i

if.then.i:                                        ; preds = %while.body
  %and2.i = shl nuw nsw i32 %conv.i, 8
  %shl.i = and i32 %and2.i, 3840
  %arrayidx3.i = getelementptr inbounds i8, ptr %add.ptr, i64 1
  %7 = load i8, ptr %arrayidx3.i, align 1
  %conv4.i = zext i8 %7 to i32
  %or.i = or disjoint i32 %shl.i, %conv4.i
  br label %_ZN6hermes3hbc14checkBufferTagEPKh.exit

if.else.i:                                        ; preds = %while.body
  %and10.i = and i32 %conv.i, 15
  br label %_ZN6hermes3hbc14checkBufferTagEPKh.exit

_ZN6hermes3hbc14checkBufferTagEPKh.exit:          ; preds = %if.then.i, %if.else.i
  %retval.sroa.0.0.i = phi i32 [ %and10.i, %if.else.i ], [ %or.i, %if.then.i ]
  %retval.sroa.3.0.i = and i8 %6, 112
  %cmp9 = icmp ugt i32 %retval.sroa.0.0.i, 15
  %cond = select i1 %cmp9, i32 2, i32 1
  %add = add nsw i32 %cond, %5
  store i32 %add, ptr %ind, align 4
  %cmp1122.not = icmp eq i32 %retval.sroa.0.0.i, 0
  br i1 %cmp1122.not, label %while.cond.loopexit, label %for.body

for.body:                                         ; preds = %_ZN6hermes3hbc14checkBufferTagEPKh.exit, %_ZN4llvh11raw_ostreamlsEPKc.exit19
  %i.023 = phi i32 [ %inc, %_ZN4llvh11raw_ostreamlsEPKc.exit19 ], [ 0, %_ZN6hermes3hbc14checkBufferTagEPKh.exit ]
  call fastcc void @_ZN6hermes3hbc12_GLOBAL__N_111SLPToStringB5cxx11EhPKhPi(ptr noalias nonnull align 8 %ref.tmp, i8 noundef zeroext %retval.sroa.3.0.i, ptr noundef %retval.sroa.0.0.copyload.i, ptr noundef nonnull %ind)
  %call.i = call noundef ptr @_ZNKSt7__cxx1112basic_stringIcSt11char_traitsIcESaIcEE4dataEv(ptr noundef nonnull align 8 dereferenceable(32) %ref.tmp) #17
  %call2.i = call noundef i64 @_ZNKSt7__cxx1112basic_stringIcSt11char_traitsIcESaIcEE6lengthEv(ptr noundef nonnull align 8 dereferenceable(32) %ref.tmp) #17
  %call3.i = call noundef nonnull align 8 dereferenceable(36) ptr @_ZN4llvh11raw_ostream5writeEPKcm(ptr noundef nonnull align 8 dereferenceable(36) %OS, ptr noundef %call.i, i64 noundef %call2.i) #17
  %OutBufEnd.i5.i6 = getelementptr inbounds i8, ptr %call3.i, i64 16
  %8 = load ptr, ptr %OutBufEnd.i5.i6, align 8
  %OutBufCur.i6.i7 = getelementptr inbounds i8, ptr %call3.i, i64 24
  %9 = load ptr, ptr %OutBufCur.i6.i7, align 8
  %cmp.i.i11 = icmp eq ptr %8, %9
  br i1 %cmp.i.i11, label %if.then.i.i17, label %if.then4.i.i14

if.then.i.i17:                                    ; preds = %for.body
  %call3.i.i18 = call noundef nonnull align 8 dereferenceable(36) ptr @_ZN4llvh11raw_ostream5writeEPKcm(ptr noundef nonnull align 8 dereferenceable(36) %call3.i, ptr noundef nonnull @.str.2, i64 noundef 1) #17
  br label %_ZN4llvh11raw_ostreamlsEPKc.exit19

if.then4.i.i14:                                   ; preds = %for.body
  store i8 10, ptr %9, align 1
  %10 = load ptr, ptr %OutBufCur.i6.i7, align 8
  %add.ptr.i.i15 = getelementptr inbounds i8, ptr %10, i64 1
  store ptr %add.ptr.i.i15, ptr %OutBufCur.i6.i7, align 8
  br label %_ZN4llvh11raw_ostreamlsEPKc.exit19

_ZN4llvh11raw_ostreamlsEPKc.exit19:               ; preds = %if.then.i.i17, %if.then4.i.i14
  call void @_ZNSt7__cxx1112basic_stringIcSt11char_traitsIcESaIcEED1Ev(ptr noundef nonnull align 8 dereferenceable(32) %ref.tmp) #17
  %inc = add nuw nsw i32 %i.023, 1
  %exitcond.not = icmp eq i32 %inc, %retval.sroa.0.0.i
  br i1 %exitcond.not, label %while.cond.loopexit.loopexit, label %for.body, !llvm.loop !14

while.end:                                        ; preds = %while.cond.loopexit, %entry
  ret void
}